ccopy_reg
_reconstructor
p1
(cargparse
Namespace
p2
c__builtin__
object
p3
NtRp4
(dp5
S'num_epochs'
p6
I50
sS'grad_clip'
p7
F5
sS'rnn_size'
p8
I128
sS'data_path'
p9
S'nicole.txt'
p10
sS'vocab_size'
p11
I123
sS'learning_rate'
p12
F0.002
sS'save_model'
p13
S'models'
p14
sS'seq_length'
p15
I50
sS'batch_size'
p16
I50
sS'decay_rate'
p17
F0.96999999999999997
sS'print_every'
p18
I1
sS'init_from'
p19
NsS'log_dir'
p20
S'logs'
p21
sS'num_layers'
p22
I2
sS'total_time'
p23
I0
sS'input_keep_prob'
p24
F1
sS'model'
p25
S'lstm'
p26
sS'save_checkpoints'
p27
S'checkpoints'
p28
sS'save_every'
p29
I1000
sS'save_dir'
p30
S'checkpoints/nicole'
p31
sS'output_keep_prob'
p32
F1
sb.